target datalayout = "e-m:e-p270:32:32-p271:32:32-p272:64:64-i64:64-i128:128-f80:128-n8:16:32:64-S128"
target triple = "x86_64-unknown-linux-gnu"

%"struct.icu_75::UniProps" = type { i32, i32, [75 x i8], [25 x i32], [4 x i8], i32, i32, i32, i32, i32, i32, i32, ptr, ptr, ptr, %"class.icu_75::UnicodeString", %"class.icu_75::UnicodeString", %"class.icu_75::UnicodeString", %"class.icu_75::UnicodeString", %"class.icu_75::UnicodeSet" }
%"class.icu_75::UnicodeString" = type { %"class.icu_75::Replaceable", %"union.icu_75::UnicodeString::StackBufferOrFields" }
%"class.icu_75::Replaceable" = type { %"class.icu_75::UObject" }
%"class.icu_75::UObject" = type { ptr }
%"union.icu_75::UnicodeString::StackBufferOrFields" = type { %struct.anon.0, [32 x i8] }
%struct.anon.0 = type { i16, i32, i32, ptr }
%"class.icu_75::UnicodeSet" = type <{ %"class.icu_75::UnicodeFilter", ptr, i32, i32, i8, [7 x i8], ptr, ptr, i32, [4 x i8], ptr, i32, [4 x i8], ptr, ptr, [25 x i32], [4 x i8] }>
%"class.icu_75::UnicodeFilter" = type { %"class.icu_75::UnicodeFunctor", %"class.icu_75::UnicodeMatcher" }
%"class.icu_75::UnicodeFunctor" = type { %"class.icu_75::UObject" }
%"class.icu_75::UnicodeMatcher" = type { ptr }
%"class.icu_75::PreparsedUCD" = type { ptr, ptr, i32, i32, i32, i32, i32, ptr, ptr, [4 x i8], %"struct.icu_75::UniProps", %"struct.icu_75::UniProps", %"struct.icu_75::UniProps", %"class.icu_75::UnicodeSet", [3 x [4096 x i8]] }

@stdin = external global ptr, align 8
@.str = private unnamed_addr constant [2 x i8] c"r\00", align 1
@.str.1 = private unnamed_addr constant [28 x i8] c"error opening preparsed UCD\00", align 1
@stderr = external global ptr, align 8
@.str.2 = private unnamed_addr constant [37 x i8] c"error opening preparsed UCD file %s\0A\00", align 1
@.str.3 = private unnamed_addr constant [21 x i8] c"\22no file name given\22\00", align 1
@_ZN6icu_758UniPropsC1Ev = unnamed_addr alias void (ptr), ptr @_ZN6icu_758UniPropsC2Ev
@_ZN6icu_758UniPropsD1Ev = unnamed_addr alias void (ptr), ptr @_ZN6icu_758UniPropsD2Ev

; Function Attrs: mustprogress nounwind uwtable
define internal noundef signext i8 @_ZL9U_FAILURE10UErrorCode(i32 noundef %code) #0 {
entry:
  %code.addr = alloca i32, align 4
  store i32 %code, ptr %code.addr, align 4
  %0 = load i32, ptr %code.addr, align 4
  %cmp = icmp sgt i32 %0, 0
  %conv = zext i1 %cmp to i8
  ret i8 %conv
}

; Function Attrs: mustprogress uwtable
define void @_ZN6icu_7512PreparsedUCDC2EPKcR10UErrorCode(ptr noundef nonnull align 8 dereferenceable(14640) %this, ptr noundef %filename, ptr noundef nonnull align 4 dereferenceable(4) %errorCode) unnamed_addr #1 align 2 personality ptr @__gxx_personality_v0 {
entry:
  %this.addr = alloca ptr, align 8
  %filename.addr = alloca ptr, align 8
  %errorCode.addr = alloca ptr, align 8
  %exn.slot = alloca ptr, align 8
  %ehselector.slot = alloca i32, align 4
  store ptr %this, ptr %this.addr, align 8
  store ptr %filename, ptr %filename.addr, align 8
  store ptr %errorCode, ptr %errorCode.addr, align 8
  %this1 = load ptr, ptr %this.addr, align 8
  %pnames = getelementptr inbounds %"class.icu_75::PreparsedUCD", ptr %this1, i32 0, i32 0
  store ptr null, ptr %pnames, align 8
  %file = getelementptr inbounds %"class.icu_75::PreparsedUCD", ptr %this1, i32 0, i32 1
  store ptr null, ptr %file, align 8
  %defaultLineIndex = getelementptr inbounds %"class.icu_75::PreparsedUCD", ptr %this1, i32 0, i32 2
  store i32 -1, ptr %defaultLineIndex, align 8
  %blockLineIndex = getelementptr inbounds %"class.icu_75::PreparsedUCD", ptr %this1, i32 0, i32 3
  store i32 -1, ptr %blockLineIndex, align 4
  %lineIndex = getelementptr inbounds %"class.icu_75::PreparsedUCD", ptr %this1, i32 0, i32 4
  store i32 0, ptr %lineIndex, align 8
  %lineNumber = getelementptr inbounds %"class.icu_75::PreparsedUCD", ptr %this1, i32 0, i32 5
  store i32 0, ptr %lineNumber, align 4
  %lineType = getelementptr inbounds %"class.icu_75::PreparsedUCD", ptr %this1, i32 0, i32 6
  store i32 0, ptr %lineType, align 8
  %fieldLimit = getelementptr inbounds %"class.icu_75::PreparsedUCD", ptr %this1, i32 0, i32 7
  store ptr null, ptr %fieldLimit, align 8
  %lineLimit = getelementptr inbounds %"class.icu_75::PreparsedUCD", ptr %this1, i32 0, i32 8
  store ptr null, ptr %lineLimit, align 8
  %defaultProps = getelementptr inbounds %"class.icu_75::PreparsedUCD", ptr %this1, i32 0, i32 10
  call void @_ZN6icu_758UniPropsC1Ev(ptr noundef nonnull align 8 dereferenceable(696) %defaultProps)
  %blockProps = getelementptr inbounds %"class.icu_75::PreparsedUCD", ptr %this1, i32 0, i32 11
  invoke void @_ZN6icu_758UniPropsC1Ev(ptr noundef nonnull align 8 dereferenceable(696) %blockProps)
          to label %invoke.cont unwind label %lpad

invoke.cont:                                      ; preds = %entry
  %cpProps = getelementptr inbounds %"class.icu_75::PreparsedUCD", ptr %this1, i32 0, i32 12
  invoke void @_ZN6icu_758UniPropsC1Ev(ptr noundef nonnull align 8 dereferenceable(696) %cpProps)
          to label %invoke.cont3 unwind label %lpad2

invoke.cont3:                                     ; preds = %invoke.cont
  %blockValues = getelementptr inbounds %"class.icu_75::PreparsedUCD", ptr %this1, i32 0, i32 13
  invoke void @_ZN6icu_7510UnicodeSetC1Ev(ptr noundef nonnull align 8 dereferenceable(200) %blockValues)
          to label %invoke.cont5 unwind label %lpad4

invoke.cont5:                                     ; preds = %invoke.cont3
  %0 = load ptr, ptr %errorCode.addr, align 8
  %1 = load i32, ptr %0, align 4
  %call = invoke noundef signext i8 @_ZL9U_FAILURE10UErrorCode(i32 noundef %1)
          to label %invoke.cont7 unwind label %lpad6

invoke.cont7:                                     ; preds = %invoke.cont5
  %tobool = icmp ne i8 %call, 0
  br i1 %tobool, label %if.then, label %if.end

if.then:                                          ; preds = %invoke.cont7
  br label %return

lpad:                                             ; preds = %entry
  %2 = landingpad { ptr, i32 }
          cleanup
  %3 = extractvalue { ptr, i32 } %2, 0
  store ptr %3, ptr %exn.slot, align 8
  %4 = extractvalue { ptr, i32 } %2, 1
  store i32 %4, ptr %ehselector.slot, align 4
  br label %ehcleanup31

lpad2:                                            ; preds = %invoke.cont
  %5 = landingpad { ptr, i32 }
          cleanup
  %6 = extractvalue { ptr, i32 } %5, 0
  store ptr %6, ptr %exn.slot, align 8
  %7 = extractvalue { ptr, i32 } %5, 1
  store i32 %7, ptr %ehselector.slot, align 4
  br label %ehcleanup30

lpad4:                                            ; preds = %invoke.cont3
  %8 = landingpad { ptr, i32 }
          cleanup
  %9 = extractvalue { ptr, i32 } %8, 0
  store ptr %9, ptr %exn.slot, align 8
  %10 = extractvalue { ptr, i32 } %8, 1
  store i32 %10, ptr %ehselector.slot, align 4
  br label %ehcleanup

lpad6:                                            ; preds = %cond.end, %if.then22, %if.else, %invoke.cont5
  %11 = landingpad { ptr, i32 }
          cleanup
  %12 = extractvalue { ptr, i32 } %11, 0
  store ptr %12, ptr %exn.slot, align 8
  %13 = extractvalue { ptr, i32 } %11, 1
  store i32 %13, ptr %ehselector.slot, align 4
  call void @_ZN6icu_7510UnicodeSetD1Ev(ptr noundef nonnull align 8 dereferenceable(200) %blockValues) #10
  br label %ehcleanup

if.end:                                           ; preds = %invoke.cont7
  %14 = load ptr, ptr %filename.addr, align 8
  %cmp = icmp eq ptr %14, null
  br i1 %cmp, label %if.then14, label %lor.lhs.false

lor.lhs.false:                                    ; preds = %if.end
  %15 = load ptr, ptr %filename.addr, align 8
  %16 = load i8, ptr %15, align 1
  %conv = sext i8 %16 to i32
  %cmp8 = icmp eq i32 %conv, 0
  br i1 %cmp8, label %if.then14, label %lor.lhs.false9

lor.lhs.false9:                                   ; preds = %lor.lhs.false
  %17 = load ptr, ptr %filename.addr, align 8
  %18 = load i8, ptr %17, align 1
  %conv10 = sext i8 %18 to i32
  %cmp11 = icmp eq i32 %conv10, 45
  br i1 %cmp11, label %land.lhs.true, label %if.else

land.lhs.true:                                    ; preds = %lor.lhs.false9
  %19 = load ptr, ptr %filename.addr, align 8
  %arrayidx = getelementptr inbounds i8, ptr %19, i64 1
  %20 = load i8, ptr %arrayidx, align 1
  %conv12 = sext i8 %20 to i32
  %cmp13 = icmp eq i32 %conv12, 0
  br i1 %cmp13, label %if.then14, label %if.else

if.then14:                                        ; preds = %land.lhs.true, %lor.lhs.false, %if.end
  store ptr null, ptr %filename.addr, align 8
  %21 = load ptr, ptr @stdin, align 8
  %file15 = getelementptr inbounds %"class.icu_75::PreparsedUCD", ptr %this1, i32 0, i32 1
  store ptr %21, ptr %file15, align 8
  br label %if.end19

if.else:                                          ; preds = %land.lhs.true, %lor.lhs.false9
  %22 = load ptr, ptr %filename.addr, align 8
  %call17 = invoke noalias ptr @fopen(ptr noundef %22, ptr noundef @.str)
          to label %invoke.cont16 unwind label %lpad6

invoke.cont16:                                    ; preds = %if.else
  %file18 = getelementptr inbounds %"class.icu_75::PreparsedUCD", ptr %this1, i32 0, i32 1
  store ptr %call17, ptr %file18, align 8
  br label %if.end19

if.end19:                                         ; preds = %invoke.cont16, %if.then14
  %file20 = getelementptr inbounds %"class.icu_75::PreparsedUCD", ptr %this1, i32 0, i32 1
  %23 = load ptr, ptr %file20, align 8
  %cmp21 = icmp eq ptr %23, null
  br i1 %cmp21, label %if.then22, label %if.end27

if.then22:                                        ; preds = %if.end19
  invoke void @perror(ptr noundef @.str.1)
          to label %invoke.cont23 unwind label %lpad6

invoke.cont23:                                    ; preds = %if.then22
  %24 = load ptr, ptr @stderr, align 8
  %25 = load ptr, ptr %filename.addr, align 8
  %tobool24 = icmp ne ptr %25, null
  br i1 %tobool24, label %cond.true, label %cond.false

cond.true:                                        ; preds = %invoke.cont23
  %26 = load ptr, ptr %filename.addr, align 8
  br label %cond.end

cond.false:                                       ; preds = %invoke.cont23
  br label %cond.end

cond.end:                                         ; preds = %cond.false, %cond.true
  %cond = phi ptr [ %26, %cond.true ], [ @.str.3, %cond.false ]
  %call26 = invoke i32 (ptr, ptr, ...) @fprintf(ptr noundef %24, ptr noundef @.str.2, ptr noundef %cond)
          to label %invoke.cont25 unwind label %lpad6

invoke.cont25:                                    ; preds = %cond.end
  %27 = load ptr, ptr %errorCode.addr, align 8
  store i32 4, ptr %27, align 4
  br label %return

if.end27:                                         ; preds = %if.end19
  %ucdVersion = getelementptr inbounds %"class.icu_75::PreparsedUCD", ptr %this1, i32 0, i32 9
  %arraydecay = getelementptr inbounds [4 x i8], ptr %ucdVersion, i64 0, i64 0
  call void @llvm.memset.p0.i64(ptr align 8 %arraydecay, i8 0, i64 4, i1 false)
  %lines = getelementptr inbounds %"class.icu_75::PreparsedUCD", ptr %this1, i32 0, i32 14
  %arrayidx28 = getelementptr inbounds [3 x [4096 x i8]], ptr %lines, i64 0, i64 0
  %arrayidx29 = getelementptr inbounds [4096 x i8], ptr %arrayidx28, i64 0, i64 0
  store i8 0, ptr %arrayidx29, align 8
  br label %return

return:                                           ; preds = %if.end27, %invoke.cont25, %if.then
  ret void

ehcleanup:                                        ; preds = %lpad6, %lpad4
  call void @_ZN6icu_758UniPropsD1Ev(ptr noundef nonnull align 8 dereferenceable(696) %cpProps) #10
  br label %ehcleanup30

ehcleanup30:                                      ; preds = %ehcleanup, %lpad2
  call void @_ZN6icu_758UniPropsD1Ev(ptr noundef nonnull align 8 dereferenceable(696) %blockProps) #10
  br label %ehcleanup31

ehcleanup31:                                      ; preds = %ehcleanup30, %lpad
  call void @_ZN6icu_758UniPropsD1Ev(ptr noundef nonnull align 8 dereferenceable(696) %defaultProps) #10
  br label %eh.resume

eh.resume:                                        ; preds = %ehcleanup31
  %exn = load ptr, ptr %exn.slot, align 8
  %sel = load i32, ptr %ehselector.slot, align 4
  %lpad.val = insertvalue { ptr, i32 } poison, ptr %exn, 0
  %lpad.val32 = insertvalue { ptr, i32 } %lpad.val, i32 %sel, 1
  resume { ptr, i32 } %lpad.val32
}