; Function Attrs: mustprogress uwtable
define void @_ZN6icu_7512PreparsedUCDC2EPKcR10UErrorCode(ptr noundef nonnull align 8 dereferenceable(14640) %this, ptr noundef %filename, ptr nocapture noundef nonnull align 4 dereferenceable(4) %errorCode) unnamed_addr #1 align 2 personality ptr @__gxx_personality_v0 {
entry:
  %file = getelementptr inbounds i8, ptr %this, i64 8
  %defaultLineIndex = getelementptr inbounds i8, ptr %this, i64 16
  tail call void @llvm.memset.p0.i64(ptr noundef nonnull align 8 dereferenceable(16) %this, i8 0, i64 16, i1 false)
  store <4 x i32> <i32 -1, i32 -1, i32 0, i32 0>, ptr %defaultLineIndex, align 8
  %lineType = getelementptr inbounds i8, ptr %this, i64 32
  store i32 0, ptr %lineType, align 8
  %fieldLimit = getelementptr inbounds i8, ptr %this, i64 40
  %defaultProps = getelementptr inbounds i8, ptr %this, i64 64
  tail call void @llvm.memset.p0.i64(ptr noundef nonnull align 8 dereferenceable(16) %fieldLimit, i8 0, i64 16, i1 false)
  tail call void @_ZN6icu_758UniPropsC1Ev(ptr noundef nonnull align 8 dereferenceable(696) %defaultProps)
  %blockProps = getelementptr inbounds i8, ptr %this, i64 760
  invoke void @_ZN6icu_758UniPropsC1Ev(ptr noundef nonnull align 8 dereferenceable(696) %blockProps)
          to label %invoke.cont unwind label %lpad

invoke.cont:                                      ; preds = %entry
  %cpProps = getelementptr inbounds i8, ptr %this, i64 1456
  invoke void @_ZN6icu_758UniPropsC1Ev(ptr noundef nonnull align 8 dereferenceable(696) %cpProps)
          to label %invoke.cont3 unwind label %lpad2

invoke.cont3:                                     ; preds = %invoke.cont
  %blockValues = getelementptr inbounds i8, ptr %this, i64 2152
  invoke void @_ZN6icu_7510UnicodeSetC1Ev(ptr noundef nonnull align 8 dereferenceable(200) %blockValues)
          to label %invoke.cont5 unwind label %lpad4

invoke.cont5:                                     ; preds = %invoke.cont3
  %0 = load i32, ptr %errorCode, align 4
  %cmp.i = icmp slt i32 %0, 1
  br i1 %cmp.i, label %if.end, label %return

lpad:                                             ; preds = %entry
  %1 = landingpad { ptr, i32 }
          cleanup
  br label %ehcleanup31

lpad2:                                            ; preds = %invoke.cont
  %2 = landingpad { ptr, i32 }
          cleanup
  br label %ehcleanup30

lpad4:                                            ; preds = %invoke.cont3
  %3 = landingpad { ptr, i32 }
          cleanup
  tail call void @_ZN6icu_758UniPropsD1Ev(ptr noundef nonnull align 8 dereferenceable(696) %cpProps) #21
  br label %ehcleanup30

if.end:                                           ; preds = %invoke.cont5
  %cmp = icmp eq ptr %filename, null
  br i1 %cmp, label %if.then14, label %lor.lhs.false

lor.lhs.false:                                    ; preds = %if.end
  %4 = load i8, ptr %filename, align 1
  switch i8 %4, label %if.else [
    i8 0, label %if.then14
    i8 45, label %land.lhs.true
  ]

land.lhs.true:                                    ; preds = %lor.lhs.false
  %arrayidx = getelementptr inbounds i8, ptr %filename, i64 1
  %5 = load i8, ptr %arrayidx, align 1
  %cmp13 = icmp eq i8 %5, 0
  br i1 %cmp13, label %if.then14, label %if.else

if.then14:                                        ; preds = %lor.lhs.false, %land.lhs.true, %if.end
  %6 = load ptr, ptr @stdin, align 8
  br label %if.end19

if.else:                                          ; preds = %lor.lhs.false, %land.lhs.true
  %call17 = tail call noalias ptr @fopen(ptr noundef nonnull %filename, ptr noundef nonnull @.str)
  br label %if.end19

if.end19:                                         ; preds = %if.else, %if.then14
  %storemerge = phi ptr [ %call17, %if.else ], [ %6, %if.then14 ]
  %filename.addr.0 = phi ptr [ %filename, %if.else ], [ null, %if.then14 ]
  store ptr %storemerge, ptr %file, align 8
  %cmp21 = icmp eq ptr %storemerge, null
  br i1 %cmp21, label %if.then22, label %if.end27

if.then22:                                        ; preds = %if.end19
  tail call void @perror(ptr noundef nonnull @.str.1) #24
  %7 = load ptr, ptr @stderr, align 8
  %tobool24.not = icmp eq ptr %filename.addr.0, null
  %cond = select i1 %tobool24.not, ptr @.str.3, ptr %filename.addr.0
  %call26 = tail call i32 (ptr, ptr, ...) @fprintf(ptr noundef %7, ptr noundef nonnull @.str.2, ptr noundef nonnull %cond) #24
  store i32 4, ptr %errorCode, align 4
  br label %return

if.end27:                                         ; preds = %if.end19
  %ucdVersion = getelementptr inbounds i8, ptr %this, i64 56
  store i32 0, ptr %ucdVersion, align 8
  %lines = getelementptr inbounds i8, ptr %this, i64 2352
  store i8 0, ptr %lines, align 8
  br label %return

return:                                           ; preds = %invoke.cont5, %if.end27, %if.then22
  ret void

ehcleanup30:                                      ; preds = %lpad4, %lpad2
  %.pn = phi { ptr, i32 } [ %3, %lpad4 ], [ %2, %lpad2 ]
  tail call void @_ZN6icu_758UniPropsD1Ev(ptr noundef nonnull align 8 dereferenceable(696) %blockProps) #21
  br label %ehcleanup31

ehcleanup31:                                      ; preds = %ehcleanup30, %lpad
  %.pn.pn = phi { ptr, i32 } [ %.pn, %ehcleanup30 ], [ %1, %lpad ]
  tail call void @_ZN6icu_758UniPropsD1Ev(ptr noundef nonnull align 8 dereferenceable(696) %defaultProps) #21
  resume { ptr, i32 } %.pn.pn
}